target datalayout = "e-m:e-p270:32:32-p271:32:32-p272:64:64-i64:64-i128:128-f80:128-n8:16:32:64-S128"
target triple = "x86_64-pc-linux-gnu"

%struct.connectdata = type { %struct.Curl_llist_node, ptr, ptr, i64, ptr, i64, ptr, ptr, %struct.hostname, ptr, ptr, %struct.hostname, %struct.proxy_info, %struct.proxy_info, %struct.ip_quadruple, %struct.ip_quadruple, ptr, ptr, ptr, ptr, ptr, %struct.curltime, %struct.curltime, %struct.curltime, [2 x i32], [2 x ptr], [2 x ptr], [2 x ptr], %struct.anon, %struct.easy_pollset, %struct.ssl_primary_config, %struct.ssl_primary_config, %struct.ConnectBits, ptr, ptr, %struct.curltime, i32, i32, %struct.Curl_llist, i32, i32, %struct.ntlmdata, %struct.ntlmdata, %union.anon.1, ptr, ptr, i16, i32, i32, i32, i32, i16, i16, i8, i8, i8, i8, i8, i8, i8 }
%struct.Curl_llist_node = type { ptr, ptr, ptr, ptr }
%struct.hostname = type { ptr, ptr, ptr, ptr }
%struct.proxy_info = type { %struct.hostname, i32, i8, ptr, ptr }
%struct.ip_quadruple = type { [46 x i8], [46 x i8], i32, i32 }
%struct.anon = type { [2 x %struct.curltime], i32 }
%struct.easy_pollset = type { [5 x i32], i32, [5 x i8] }
%struct.ssl_primary_config = type { ptr, ptr, ptr, ptr, ptr, ptr, ptr, ptr, ptr, ptr, ptr, ptr, ptr, ptr, i8, i32, i8, i8 }
%struct.ConnectBits = type { i64 }
%struct.curltime = type { i64, i32 }
%struct.Curl_llist = type { ptr, ptr, ptr, i64 }
%struct.ntlmdata = type { i32, [8 x i8], i32, ptr }
%union.anon.1 = type { %struct.ftp_conn }
%struct.ftp_conn = type { %struct.pingpong, ptr, ptr, ptr, ptr, ptr, ptr, ptr, i8, i64, ptr, i64, i32, i32, i32, i32, i32, i16, i8, i8, i8, i8, i8 }
%struct.pingpong = type { i64, i8, ptr, i64, i64, %struct.curltime, i64, %struct.dynbuf, %struct.dynbuf, i64, i64, ptr, ptr }
%struct.dynbuf = type { ptr, i64, i64, i64 }
%struct.smtp_conn = type { %struct.pingpong, %struct.SASL, i32, ptr, i8 }
%struct.SASL = type { ptr, i32, ptr, i16, i16, i16, i8 }

; Function Attrs: nounwind uwtable
define internal zeroext i1 @smtp_endofresp(ptr noundef %0, ptr noundef %1, ptr noundef %2, i64 noundef %3, ptr noundef %4) #0 {
  %6 = alloca i1, align 1
  %7 = alloca ptr, align 8
  %8 = alloca ptr, align 8
  %9 = alloca ptr, align 8
  %10 = alloca i64, align 8
  %11 = alloca ptr, align 8
  %12 = alloca ptr, align 8
  %13 = alloca i8, align 1
  %14 = alloca i32, align 4
  %15 = alloca [6 x i8], align 1
  store ptr %0, ptr %7, align 8, !tbaa !3
  store ptr %1, ptr %8, align 8, !tbaa !8
  store ptr %2, ptr %9, align 8, !tbaa !118
  store i64 %3, ptr %10, align 8, !tbaa !113
  store ptr %4, ptr %11, align 8, !tbaa !109
  call void @llvm.lifetime.start.p0(i64 8, ptr %12) #7
  %16 = load ptr, ptr %8, align 8, !tbaa !8
  %17 = getelementptr inbounds nuw %struct.connectdata, ptr %16, i32 0, i32 43
  store ptr %17, ptr %12, align 8, !tbaa !97
  call void @llvm.lifetime.start.p0(i64 1, ptr %13) #7
  store i8 0, ptr %13, align 1, !tbaa !83
  %18 = load i64, ptr %10, align 8, !tbaa !113
  %19 = icmp ult i64 %18, 4
  br i1 %19, label %56, label %20

20:                                               ; preds = %5
  %21 = load ptr, ptr %9, align 8, !tbaa !118
  %22 = getelementptr inbounds i8, ptr %21, i64 0
  %23 = load i8, ptr %22, align 1, !tbaa !88
  %24 = sext i8 %23 to i32
  %25 = icmp sge i32 %24, 48
  br i1 %25, label %26, label %56

26:                                               ; preds = %20
  %27 = load ptr, ptr %9, align 8, !tbaa !118
  %28 = getelementptr inbounds i8, ptr %27, i64 0
  %29 = load i8, ptr %28, align 1, !tbaa !88
  %30 = sext i8 %29 to i32
  %31 = icmp sle i32 %30, 57
  br i1 %31, label %32, label %56

32:                                               ; preds = %26
  %33 = load ptr, ptr %9, align 8, !tbaa !118
  %34 = getelementptr inbounds i8, ptr %33, i64 1
  %35 = load i8, ptr %34, align 1, !tbaa !88
  %36 = sext i8 %35 to i32
  %37 = icmp sge i32 %36, 48
  br i1 %37, label %38, label %56

38:                                               ; preds = %32
  %39 = load ptr, ptr %9, align 8, !tbaa !118
  %40 = getelementptr inbounds i8, ptr %39, i64 1
  %41 = load i8, ptr %40, align 1, !tbaa !88
  %42 = sext i8 %41 to i32
  %43 = icmp sle i32 %42, 57
  br i1 %43, label %44, label %56

44:                                               ; preds = %38
  %45 = load ptr, ptr %9, align 8, !tbaa !118
  %46 = getelementptr inbounds i8, ptr %45, i64 2
  %47 = load i8, ptr %46, align 1, !tbaa !88
  %48 = sext i8 %47 to i32
  %49 = icmp sge i32 %48, 48
  br i1 %49, label %50, label %56

50:                                               ; preds = %44
  %51 = load ptr, ptr %9, align 8, !tbaa !118
  %52 = getelementptr inbounds i8, ptr %51, i64 2
  %53 = load i8, ptr %52, align 1, !tbaa !88
  %54 = sext i8 %53 to i32
  %55 = icmp sle i32 %54, 57
  br i1 %55, label %57, label %56

56:                                               ; preds = %50, %44, %38, %32, %26, %20, %5
  store i1 false, ptr %6, align 1
  store i32 1, ptr %14, align 4
  br label %106

57:                                               ; preds = %50
  %58 = load ptr, ptr %9, align 8, !tbaa !118
  %59 = getelementptr inbounds i8, ptr %58, i64 3
  %60 = load i8, ptr %59, align 1, !tbaa !88
  %61 = sext i8 %60 to i32
  %62 = icmp eq i32 %61, 32
  br i1 %62, label %66, label %63

63:                                               ; preds = %57
  %64 = load i64, ptr %10, align 8, !tbaa !113
  %65 = icmp eq i64 %64, 5
  br i1 %65, label %66, label %84

66:                                               ; preds = %63, %57
  call void @llvm.lifetime.start.p0(i64 6, ptr %15) #7
  store i8 1, ptr %13, align 1, !tbaa !83
  %67 = getelementptr inbounds [6 x i8], ptr %15, i64 0, i64 0
  call void @llvm.memset.p0.i64(ptr align 1 %67, i8 0, i64 6, i1 false)
  %68 = getelementptr inbounds [6 x i8], ptr %15, i64 0, i64 0
  %69 = load ptr, ptr %9, align 8, !tbaa !118
  %70 = load i64, ptr %10, align 8, !tbaa !113
  %71 = icmp eq i64 %70, 5
  %72 = select i1 %71, i32 5, i32 3
  %73 = sext i32 %72 to i64
  call void @llvm.memcpy.p0.p0.i64(ptr align 1 %68, ptr align 1 %69, i64 %73, i1 false)
  %74 = getelementptr inbounds [6 x i8], ptr %15, i64 0, i64 0
  %75 = call i64 @strtol(ptr noundef %74, ptr noundef null, i32 noundef 10) #7
  %76 = call i32 @curlx_sltosi(i64 noundef %75)
  %77 = load ptr, ptr %11, align 8, !tbaa !109
  store i32 %76, ptr %77, align 4, !tbaa !10
  %78 = load ptr, ptr %11, align 8, !tbaa !109
  %79 = load i32, ptr %78, align 4, !tbaa !10
  %80 = icmp eq i32 %79, 1
  br i1 %80, label %81, label %83

81:                                               ; preds = %66
  %82 = load ptr, ptr %11, align 8, !tbaa !109
  store i32 0, ptr %82, align 4, !tbaa !10
  br label %83

83:                                               ; preds = %81, %66
  call void @llvm.lifetime.end.p0(i64 6, ptr %15) #7
  br label %103

84:                                               ; preds = %63
  %85 = load ptr, ptr %9, align 8, !tbaa !118
  %86 = getelementptr inbounds i8, ptr %85, i64 3
  %87 = load i8, ptr %86, align 1, !tbaa !88
  %88 = sext i8 %87 to i32
  %89 = icmp eq i32 %88, 45
  br i1 %89, label %90, label %102

90:                                               ; preds = %84
  %91 = load ptr, ptr %12, align 8, !tbaa !97
  %92 = getelementptr inbounds nuw %struct.smtp_conn, ptr %91, i32 0, i32 2
  %93 = load i32, ptr %92, align 8, !tbaa !105
  %94 = icmp eq i32 %93, 2
  br i1 %94, label %100, label %95

95:                                               ; preds = %90
  %96 = load ptr, ptr %12, align 8, !tbaa !97
  %97 = getelementptr inbounds nuw %struct.smtp_conn, ptr %96, i32 0, i32 2
  %98 = load i32, ptr %97, align 8, !tbaa !105
  %99 = icmp eq i32 %98, 7
  br i1 %99, label %100, label %102

100:                                              ; preds = %95, %90
  store i8 1, ptr %13, align 1, !tbaa !83
  %101 = load ptr, ptr %11, align 8, !tbaa !109
  store i32 1, ptr %101, align 4, !tbaa !10
  br label %102

102:                                              ; preds = %100, %95, %84
  br label %103

103:                                              ; preds = %102, %83
  %104 = load i8, ptr %13, align 1, !tbaa !83, !range !85, !noundef !86
  %105 = trunc i8 %104 to i1
  store i1 %105, ptr %6, align 1
  store i32 1, ptr %14, align 4
  br label %106

106:                                              ; preds = %103, %56
  call void @llvm.lifetime.end.p0(i64 1, ptr %13) #7
  call void @llvm.lifetime.end.p0(i64 8, ptr %12) #7
  %107 = load i1, ptr %6, align 1
  ret i1 %107
}