; Function Attrs: nounwind uwtable
define internal noundef zeroext i1 @smtp_endofresp(ptr readnone captures(none) %0, ptr noundef readonly captures(none) %1, ptr noundef readonly captures(none) %2, i64 noundef %3, ptr noundef writeonly captures(none) %4) #0 {
  %6 = alloca [6 x i8], align 1
  %7 = icmp ult i64 %3, 4
  br i1 %7, label %36, label %8

8:                                                ; preds = %5
  %9 = load i8, ptr %2, align 1, !tbaa !7
  %10 = add i8 %9, -48
  %or.cond28 = icmp ult i8 %10, 10
  br i1 %or.cond28, label %11, label %36

11:                                               ; preds = %8
  %12 = getelementptr inbounds nuw i8, ptr %2, i64 1
  %13 = load i8, ptr %12, align 1, !tbaa !7
  %14 = add i8 %13, -48
  %or.cond29 = icmp ult i8 %14, 10
  br i1 %or.cond29, label %15, label %36

15:                                               ; preds = %11
  %16 = getelementptr inbounds nuw i8, ptr %2, i64 2
  %17 = load i8, ptr %16, align 1, !tbaa !7
  %18 = add i8 %17, -48
  %or.cond30 = icmp ult i8 %18, 10
  br i1 %or.cond30, label %19, label %36

19:                                               ; preds = %15
  %20 = getelementptr inbounds nuw i8, ptr %2, i64 3
  %21 = load i8, ptr %20, align 1, !tbaa !7
  %22 = icmp eq i8 %21, 32
  %23 = icmp eq i64 %3, 5
  %or.cond = or i1 %23, %22
  br i1 %or.cond, label %24, label %30

24:                                               ; preds = %19
  call void @llvm.lifetime.start.p0(i64 6, ptr nonnull %6) #9
  %25 = select i1 %23, i64 5, i64 3
  %26 = sub nuw nsw i64 6, %25
  %.sroa.sel.v = select i1 %23, i64 5, i64 3
  %.sroa.sel = getelementptr inbounds nuw i8, ptr %6, i64 %.sroa.sel.v
  call void @llvm.memset.p0.i64(ptr noundef nonnull align 1 dereferenceable(1) %.sroa.sel, i8 0, i64 %26, i1 false)
  call void @llvm.memcpy.p0.p0.i64(ptr noundef nonnull align 1 dereferenceable(3) %6, ptr noundef nonnull align 1 dereferenceable(3) %2, i64 %25, i1 false)
  %27 = call i64 @strtol(ptr noundef nonnull captures(none) %6, ptr noundef null, i32 noundef 10) #9
  %28 = tail call i32 @curlx_sltosi(i64 noundef %27) #9
  %29 = icmp eq i32 %28, 1
  %spec.select = select i1 %29, i32 0, i32 %28
  store i32 %spec.select, ptr %4, align 4, !tbaa !137
  call void @llvm.lifetime.end.p0(i64 6, ptr nonnull %6) #9
  br label %36

30:                                               ; preds = %19
  %31 = icmp eq i8 %21, 45
  br i1 %31, label %32, label %36

32:                                               ; preds = %30
  %33 = getelementptr inbounds nuw i8, ptr %1, i64 1280
  %34 = load i32, ptr %33, align 8, !tbaa !103
  switch i32 %34, label %36 [
    i32 2, label %35
    i32 7, label %35
  ]

35:                                               ; preds = %32, %32
  store i32 1, ptr %4, align 4, !tbaa !137
  br label %36

36:                                               ; preds = %24, %35, %30, %32, %5, %8, %11, %15
  %.021 = phi i1 [ false, %15 ], [ false, %11 ], [ false, %8 ], [ false, %5 ], [ true, %24 ], [ true, %35 ], [ false, %30 ], [ false, %32 ]
  ret i1 %.021
}